target datalayout = "e-m:e-p270:32:32-p271:32:32-p272:64:64-i64:64-i128:128-f80:128-n8:16:32:64-S128"
target triple = "x86_64-pc-linux-gnu"

; Function Attrs: nounwind uwtable
define void @wolfSSL_CTX_free(ptr noundef %0) #0 {
  %2 = alloca ptr, align 8
  store ptr %0, ptr %2, align 8, !tbaa !24
  br label %3

3:                                                ; preds = %1
  br label %4

4:                                                ; preds = %3
  %5 = load ptr, ptr %2, align 8, !tbaa !24
  %6 = icmp ne ptr %5, null
  br i1 %6, label %7, label %9

7:                                                ; preds = %4
  %8 = load ptr, ptr %2, align 8, !tbaa !24
  call void @FreeSSL_Ctx(ptr noundef %8)
  br label %9

9:                                                ; preds = %7, %4
  br label %10

10:                                               ; preds = %9
  br label %11

11:                                               ; preds = %10
  ret void
}