; Function Attrs: nounwind uwtable
define void @wolfSSL_CTX_free(ptr noundef %0) local_unnamed_addr #0 {
  %.not = icmp eq ptr %0, null
  br i1 %.not, label %3, label %2

2:                                                ; preds = %1
  tail call void @FreeSSL_Ctx(ptr noundef nonnull %0) #22
  br label %3

3:                                                ; preds = %2, %1
  ret void
}